; Function Attrs: mustprogress uwtable
define hidden noundef i32 @_ZN4lean2ir7to_typeEP11lean_object(ptr noundef %0) local_unnamed_addr #0 personality ptr @__gxx_personality_v0 {
  %2 = ptrtoint ptr %0 to i64
  %3 = and i64 %2, 1
  %.not = icmp eq i64 %3, 0
  br i1 %.not, label %4, label %9

4:                                                ; preds = %1
  %5 = tail call ptr @__cxa_allocate_exception(i64 40) #24
  invoke void @_ZN4lean9exceptionC2EPKc(ptr noundef nonnull align 8 dereferenceable(40) %5, ptr noundef nonnull @.str)
          to label %6 unwind label %7

6:                                                ; preds = %4
  tail call void @__cxa_throw(ptr nonnull %5, ptr nonnull @_ZTIN4lean9exceptionE, ptr nonnull @_ZN4lean9throwableD2Ev) #25
  unreachable

7:                                                ; preds = %4
  %8 = landingpad { ptr, i32 }
          cleanup
  tail call void @__cxa_free_exception(ptr nonnull %5) #24
  resume { ptr, i32 } %8

9:                                                ; preds = %1
  %10 = lshr i64 %2, 1
  %11 = trunc i64 %10 to i32
  ret i32 %11
}